(dp0
Vengine
p1
S'pdflatex'
p2
sVpackages
p3
c__builtin__
set
p4
((lp5
Venumitem
p6
aVsubfigure
p7
aVcaption
p8
aVcolor
p9
aVfloat
p10
aVamsmath
p11
aVmultirow
p12
aVepstopdf
p13
aVgraphicx
p14
aVcite
p15
aVamssymb
p16
atp17
Rp18
sVfiles_with_guttermarks
p19
g4
((lp20
V/Users/matthieu/Journal_SPNMF/./validation.tex
p21
aS'SPNMF.tex'
p22
aV/Users/matthieu/Journal_SPNMF/benchmark.tex
p23
aV/Users/matthieu/Journal_SPNMF/background.tex
p24
atp25
Rp26
sVsynctex
p27
I01
s.