(dp0
Vengine
p1
S'pdflatex'
p2
sVpackages
p3
c__builtin__
set
p4
((lp5
Venumitem
p6
aVsubfigure
p7
aVcaption
p8
aVcolor
p9
aVfloat
p10
aVamsmath
p11
aVmultirow
p12
aVepstopdf
p13
aVgraphicx
p14
aVcite
p15
aVamssymb
p16
atp17
Rp18
sVfiles_with_guttermarks
p19
g4
((lp20
V/Users/matthieu/MySVN/Journal_SPNMF/./benchmark.tex
p21
aV/Users/matthieu/MySVN/Journal_SPNMF/./appendix.tex
p22
aV/Users/matthieu/MySVN/Journal_SPNMF/./SPNMF.tex
p23
aV/Users/matthieu/MySVN/Journal_SPNMF/background.tex
p24
aV/Users/matthieu/MySVN/Journal_SPNMF/validation.tex
p25
aV/Users/matthieu/MySVN/Journal_SPNMF/./validation.tex
p26
aV/Users/matthieu/MySVN/Journal_SPNMF/benchmark.tex
p27
aV/Users/matthieu/MySVN/Journal_SPNMF/conclusion.tex
p28
aV/Users/matthieu/Journal_SPNMF/background.tex
p29
aV/Users/matthieu/Journal_SPNMF/benchmark.tex
p30
aV/Users/matthieu/Journal_SPNMF/./validation.tex
p31
aV/Users/matthieu/MySVN/Journal_SPNMF/method.tex
p32
aS'SPNMF.tex'
p33
aV/Users/matthieu/MySVN/Journal_SPNMF/introduction.tex
p34
atp35
Rp36
sVsynctex
p37
I01
s.