(dp0
Vengine
p1
S'pdflatex'
p2
sVpackages
p3
c__builtin__
set
p4
((lp5
Venumitem
p6
aVsubfigure
p7
aVcaption
p8
aVcolor
p9
aVfloat
p10
aVamsmath
p11
aVmultirow
p12
aVepstopdf
p13
aVgraphicx
p14
aVcite
p15
aVamssymb
p16
atp17
Rp18
sVfiles_with_guttermarks
p19
g4
((lp20
V/Users/matthieu/MySVN/Journal_SPNMF/./benchmark.tex
p21
aV/Users/matthieu/MySVN/Journal_SPNMF/./appendix.tex
p22
aV/Users/matthieu/MySVN/Journal_SPNMF/./validation.tex
p23
aV/Users/matthieu/Journal_SPNMF/benchmark.tex
p24
aV/Users/matthieu/Journal_SPNMF/./validation.tex
p25
aS'SPNMF.tex'
p26
aV/Users/matthieu/Journal_SPNMF/background.tex
p27
atp28
Rp29
sVsynctex
p30
I01
s.